; Function Attrs: mustprogress uwtable
define i32 @ucnv_getType_77(ptr noundef %0) local_unnamed_addr #0 {
  %2 = getelementptr inbounds nuw i8, ptr %0, i64 48
  %3 = load ptr, ptr %2, align 8, !tbaa !8
  %4 = getelementptr inbounds nuw i8, ptr %3, i64 16
  %5 = load ptr, ptr %4, align 8, !tbaa !44
  %6 = getelementptr inbounds nuw i8, ptr %5, i64 69
  %7 = load i8, ptr %6, align 1, !tbaa !50
  %8 = icmp eq i8 %7, 2
  br i1 %8, label %9, label %11

9:                                                ; preds = %1
  %10 = tail call i32 @ucnv_MBCSGetType_77(ptr noundef nonnull %0)
  br label %13

11:                                               ; preds = %1
  %12 = sext i8 %7 to i32
  br label %13

13:                                               ; preds = %11, %9
  %.0 = phi i32 [ %10, %9 ], [ %12, %11 ]
  ret i32 %.0
}